; Function Attrs: nounwind uwtable
define dso_local noundef i32 @_ZThn88_N4node7UDPWrap9RecvStartEv(ptr noundef %this) unnamed_addr #12 align 2 {
entry:
  %state_.i.i = getelementptr inbounds i8, ptr %this, i64 -32
  %0 = load i32, ptr %state_.i.i, align 8
  %1 = add i32 %0, -1
  %spec.select.i.i = icmp ult i32 %1, 2
  br i1 %spec.select.i.i, label %_ZN4node7UDPWrap9RecvStartEv.exit, label %if.end.i

if.end.i:                                         ; preds = %entry
  %handle_.i = getelementptr inbounds i8, ptr %this, i64 32
  %call2.i = tail call i32 @uv_udp_recv_start(ptr noundef nonnull %handle_.i, ptr noundef nonnull @_ZN4node7UDPWrap7OnAllocEP11uv_handle_smP8uv_buf_t, ptr noundef nonnull @_ZN4node7UDPWrap6OnRecvEP8uv_udp_slPK8uv_buf_tPK8sockaddrj) #19
  %cmp.i = icmp eq i32 %call2.i, -114
  %spec.store.select.i = select i1 %cmp.i, i32 0, i32 %call2.i
  br label %_ZN4node7UDPWrap9RecvStartEv.exit

_ZN4node7UDPWrap9RecvStartEv.exit:                ; preds = %entry, %if.end.i
  %retval.0.i = phi i32 [ %spec.store.select.i, %if.end.i ], [ -9, %entry ]
  ret i32 %retval.0.i
}